target datalayout = "e-m:e-p270:32:32-p271:32:32-p272:64:64-i64:64-i128:128-f80:128-n8:16:32:64-S128"
target triple = "x86_64-pc-linux-gnu"

%struct._zend_executor_globals = type { %struct._zval_struct, %struct._zval_struct, [32 x ptr], ptr, ptr, %struct._zend_array, %struct._zend_array, ptr, i32, i32, ptr, ptr, ptr, ptr, ptr, ptr, i64, ptr, ptr, i32, i32, i64, i32, i32, i32, i8, i8, %struct.zend_atomic_bool_s, %struct.zend_atomic_bool_s, ptr, i64, ptr, ptr, %struct._zend_array, %struct._zend_array, i32, i8, %struct._zval_struct, %struct._zval_struct, %struct._zend_stack, %struct._zend_stack, %struct._zend_stack, ptr, i32, i32, i64, ptr, ptr, ptr, %struct._zend_objects_store, ptr, ptr, ptr, [3 x %struct._zend_op], ptr, i8, i8, i64, i32, i32, ptr, [16 x %struct._HashTableIterator], ptr, %union._zend_function, %struct._zend_op, %struct._zend_array, i64, %struct.zend_get_gc_buffer, ptr, ptr, ptr, i64, i8, i32, ptr, ptr, i64, %struct._zend_call_stack, i64, i64, [6 x ptr] }
%struct.zend_atomic_bool_s = type { i8 }
%struct._zval_struct = type { %union._zend_value, %union.anon, %union.anon.2 }
%union._zend_value = type { i64 }
%union.anon = type { i32 }
%union.anon.2 = type { i32 }
%struct._zend_stack = type { i32, i32, i32, ptr }
%struct._zend_objects_store = type { ptr, i32, i32, i32 }
%struct._HashTableIterator = type { ptr, i32, i32 }
%union._zend_function = type { %struct._zend_op_array }
%struct._zend_op_array = type { i8, [3 x i8], i32, ptr, ptr, ptr, i32, i32, ptr, ptr, ptr, ptr, i32, i32, i32, i32, ptr, ptr, ptr, ptr, ptr, i32, i32, ptr, ptr, ptr, i32, i32, i32, i32, ptr, ptr, [6 x ptr] }
%struct._zend_op = type { ptr, %union._znode_op, %union._znode_op, %union._znode_op, i32, i32, i8, i8, i8, i8 }
%union._znode_op = type { i32 }
%struct._zend_array = type { %struct._zend_refcounted_h, %union.anon.4, i32, %union.anon.6, i32, i32, i32, i32, i64, ptr }
%struct._zend_refcounted_h = type { i32, %union.anon.3 }
%union.anon.3 = type { i32 }
%union.anon.4 = type { i32 }
%union.anon.6 = type { ptr }
%struct.zend_get_gc_buffer = type { ptr, ptr, ptr }
%struct._zend_call_stack = type { ptr, i64 }
%struct._zend_execute_data = type { ptr, ptr, ptr, ptr, %struct._zval_struct, ptr, ptr, ptr, ptr }
%struct._spl_fixedarray_object = type { %struct._spl_fixedarray, ptr, %struct._zend_object }
%struct._spl_fixedarray = type { i64, ptr, i64 }
%struct._zend_object = type { %struct._zend_refcounted_h, i32, ptr, ptr, ptr, [1 x %struct._zval_struct] }
%struct.anon.0 = type { i8, i8, %union.anon.1 }
%union.anon.1 = type { i16 }

@executor_globals = external global %struct._zend_executor_globals, align 8
@zend_empty_array = external constant %struct._zend_array, align 8

; Function Attrs: nounwind uwtable
define internal zeroext i1 @spl_fixedarray_empty(ptr noundef %0) #0 {
  %2 = alloca i1, align 1
  %3 = alloca ptr, align 8
  store ptr %0, ptr %3, align 8
  %4 = load ptr, ptr %3, align 8
  %5 = getelementptr inbounds %struct._spl_fixedarray, ptr %4, i32 0, i32 1
  %6 = load ptr, ptr %5, align 8
  %7 = icmp ne ptr %6, null
  br i1 %7, label %8, label %13

8:                                                ; preds = %1
  %9 = load ptr, ptr %3, align 8
  %10 = getelementptr inbounds %struct._spl_fixedarray, ptr %9, i32 0, i32 0
  %11 = load i64, ptr %10, align 8
  %12 = icmp sgt i64 %11, 0
  call void @llvm.assume(i1 %12)
  store i1 false, ptr %2, align 1
  br label %18

13:                                               ; preds = %1
  %14 = load ptr, ptr %3, align 8
  %15 = getelementptr inbounds %struct._spl_fixedarray, ptr %14, i32 0, i32 0
  %16 = load i64, ptr %15, align 8
  %17 = icmp eq i64 %16, 0
  call void @llvm.assume(i1 %17)
  store i1 true, ptr %2, align 1
  br label %18

18:                                               ; preds = %13, %8
  %19 = load i1, ptr %2, align 1
  ret i1 %19
}

; Function Attrs: nounwind uwtable
define internal ptr @spl_fixed_array_from_obj(ptr noundef %0) #0 {
  %2 = alloca ptr, align 8
  store ptr %0, ptr %2, align 8
  %3 = load ptr, ptr %2, align 8
  %4 = getelementptr inbounds i8, ptr %3, i64 -32
  ret ptr %4
}

; Function Attrs: nounwind uwtable
define hidden void @zim_SplFixedArray_toArray(ptr noundef %0, ptr noundef %1) #0 {
  %3 = alloca ptr, align 8
  %4 = alloca ptr, align 8
  %5 = alloca ptr, align 8
  %6 = alloca ptr, align 8
  %7 = alloca ptr, align 8
  %8 = alloca ptr, align 8
  %9 = alloca ptr, align 8
  %10 = alloca i64, align 8
  %11 = alloca ptr, align 8
  store ptr %0, ptr %5, align 8
  store ptr %1, ptr %6, align 8
  %12 = load ptr, ptr %5, align 8
  %13 = getelementptr inbounds %struct._zend_execute_data, ptr %12, i32 0, i32 4
  %14 = getelementptr inbounds %struct._zval_struct, ptr %13, i32 0, i32 2
  %15 = load i32, ptr %14, align 4
  %16 = icmp eq i32 %15, 0
  %17 = xor i1 %16, true
  %18 = xor i1 %17, true
  %19 = zext i1 %18 to i32
  %20 = sext i32 %19 to i64
  %21 = icmp ne i64 %20, 0
  br i1 %21, label %22, label %23

22:                                               ; preds = %2
  br label %24

23:                                               ; preds = %2
  call void @zend_wrong_parameters_none_error()
  br label %24

24:                                               ; preds = %23, %22
  %25 = phi i32 [ 0, %22 ], [ -1, %23 ]
  %26 = icmp eq i32 %25, -1
  br i1 %26, label %27, label %32

27:                                               ; preds = %24
  br label %28

28:                                               ; preds = %27
  %29 = load ptr, ptr getelementptr inbounds (%struct._zend_executor_globals, ptr @executor_globals, i32 0, i32 50), align 8
  %30 = icmp ne ptr %29, null
  call void @llvm.assume(i1 %30)
  br label %116

31:                                               ; No predecessors!
  br label %32

32:                                               ; preds = %31, %24
  %33 = load ptr, ptr %5, align 8
  %34 = getelementptr inbounds %struct._zend_execute_data, ptr %33, i32 0, i32 4
  %35 = getelementptr inbounds %struct._zval_struct, ptr %34, i32 0, i32 0
  %36 = load ptr, ptr %35, align 8
  %37 = call ptr @spl_fixed_array_from_obj(ptr noundef %36)
  store ptr %37, ptr %7, align 8
  %38 = load ptr, ptr %7, align 8
  %39 = getelementptr inbounds %struct._spl_fixedarray_object, ptr %38, i32 0, i32 0
  %40 = call zeroext i1 @spl_fixedarray_empty(ptr noundef %39)
  br i1 %40, label %106, label %41

41:                                               ; preds = %32
  br label %42

42:                                               ; preds = %41
  %43 = call ptr @_zend_new_array_0()
  store ptr %43, ptr %8, align 8
  %44 = load ptr, ptr %6, align 8
  store ptr %44, ptr %9, align 8
  %45 = load ptr, ptr %8, align 8
  %46 = load ptr, ptr %9, align 8
  %47 = getelementptr inbounds %struct._zval_struct, ptr %46, i32 0, i32 0
  store ptr %45, ptr %47, align 8
  %48 = load ptr, ptr %9, align 8
  %49 = getelementptr inbounds %struct._zval_struct, ptr %48, i32 0, i32 1
  store i32 775, ptr %49, align 8
  br label %50

50:                                               ; preds = %42
  store i64 0, ptr %10, align 8
  br label %51

51:                                               ; preds = %102, %50
  %52 = load i64, ptr %10, align 8
  %53 = load ptr, ptr %7, align 8
  %54 = getelementptr inbounds %struct._spl_fixedarray_object, ptr %53, i32 0, i32 0
  %55 = getelementptr inbounds %struct._spl_fixedarray, ptr %54, i32 0, i32 0
  %56 = load i64, ptr %55, align 8
  %57 = icmp slt i64 %52, %56
  br i1 %57, label %58, label %105

58:                                               ; preds = %51
  %59 = load ptr, ptr %6, align 8
  %60 = getelementptr inbounds %struct._zval_struct, ptr %59, i32 0, i32 0
  %61 = load ptr, ptr %60, align 8
  %62 = load i64, ptr %10, align 8
  %63 = load ptr, ptr %7, align 8
  %64 = getelementptr inbounds %struct._spl_fixedarray_object, ptr %63, i32 0, i32 0
  %65 = getelementptr inbounds %struct._spl_fixedarray, ptr %64, i32 0, i32 1
  %66 = load ptr, ptr %65, align 8
  %67 = load i64, ptr %10, align 8
  %68 = getelementptr inbounds %struct._zval_struct, ptr %66, i64 %67
  %69 = call ptr @zend_hash_index_update(ptr noundef %61, i64 noundef %62, ptr noundef %68)
  br label %70

70:                                               ; preds = %58
  %71 = load ptr, ptr %7, align 8
  %72 = getelementptr inbounds %struct._spl_fixedarray_object, ptr %71, i32 0, i32 0
  %73 = getelementptr inbounds %struct._spl_fixedarray, ptr %72, i32 0, i32 1
  %74 = load ptr, ptr %73, align 8
  %75 = load i64, ptr %10, align 8
  %76 = getelementptr inbounds %struct._zval_struct, ptr %74, i64 %75
  %77 = getelementptr inbounds %struct._zval_struct, ptr %76, i32 0, i32 1
  %78 = getelementptr inbounds %struct.anon.0, ptr %77, i32 0, i32 1
  %79 = load i8, ptr %78, align 1
  %80 = zext i8 %79 to i32
  %81 = icmp ne i32 %80, 0
  br i1 %81, label %82, label %100

82:                                               ; preds = %70
  %83 = load ptr, ptr %7, align 8
  %84 = getelementptr inbounds %struct._spl_fixedarray_object, ptr %83, i32 0, i32 0
  %85 = getelementptr inbounds %struct._spl_fixedarray, ptr %84, i32 0, i32 1
  %86 = load ptr, ptr %85, align 8
  %87 = load i64, ptr %10, align 8
  %88 = getelementptr inbounds %struct._zval_struct, ptr %86, i64 %87
  store ptr %88, ptr %4, align 8
  %89 = load ptr, ptr %4, align 8
  %90 = getelementptr inbounds %struct._zval_struct, ptr %89, i32 0, i32 1
  %91 = getelementptr inbounds %struct.anon.0, ptr %90, i32 0, i32 1
  %92 = load i8, ptr %91, align 1
  %93 = zext i8 %92 to i32
  %94 = icmp ne i32 %93, 0
  call void @llvm.assume(i1 %94)
  %95 = load ptr, ptr %4, align 8
  %96 = load ptr, ptr %95, align 8
  store ptr %96, ptr %3, align 8
  %97 = load ptr, ptr %3, align 8
  %98 = load i32, ptr %97, align 4
  %99 = add i32 %98, 1
  store i32 %99, ptr %97, align 4
  br label %100

100:                                              ; preds = %82, %70
  br label %101

101:                                              ; preds = %100
  br label %102

102:                                              ; preds = %101
  %103 = load i64, ptr %10, align 8
  %104 = add nsw i64 %103, 1
  store i64 %104, ptr %10, align 8
  br label %51

105:                                              ; preds = %51
  br label %116

106:                                              ; preds = %32
  br label %107

107:                                              ; preds = %106
  br label %108

108:                                              ; preds = %107
  %109 = load ptr, ptr %6, align 8
  store ptr %109, ptr %11, align 8
  %110 = load ptr, ptr %11, align 8
  %111 = getelementptr inbounds %struct._zval_struct, ptr %110, i32 0, i32 0
  store ptr @zend_empty_array, ptr %111, align 8
  %112 = load ptr, ptr %11, align 8
  %113 = getelementptr inbounds %struct._zval_struct, ptr %112, i32 0, i32 1
  store i32 7, ptr %113, align 8
  br label %114

114:                                              ; preds = %108
  br label %116

115:                                              ; No predecessors!
  br label %116

116:                                              ; preds = %115, %114, %105, %28
  ret void
}