; Function Attrs: nounwind uwtable
define hidden void @zim_SplFixedArray_toArray(ptr nocapture noundef readonly %0, ptr nocapture noundef %1) #0 {
  %3 = getelementptr inbounds i8, ptr %0, i64 44
  %4 = load i32, ptr %3, align 4
  %.not = icmp eq i32 %4, 0
  br i1 %.not, label %.critedge, label %5

5:                                                ; preds = %2
  tail call void @zend_wrong_parameters_none_error() #12
  %6 = load ptr, ptr getelementptr inbounds (%struct._zend_executor_globals, ptr @executor_globals, i64 0, i32 50), align 8
  %7 = icmp ne ptr %6, null
  tail call void @llvm.assume(i1 %7)
  br label %.loopexit

.critedge:                                        ; preds = %2
  %8 = getelementptr inbounds i8, ptr %0, i64 32
  %9 = load ptr, ptr %8, align 8
  %10 = getelementptr inbounds i8, ptr %9, i64 -32
  %11 = getelementptr inbounds i8, ptr %9, i64 -24
  %12 = load ptr, ptr %11, align 8
  %.not.i = icmp eq ptr %12, null
  %13 = load i64, ptr %10, align 8
  %14 = icmp eq i64 %13, 0
  %15 = icmp sgt i64 %13, 0
  %.sink.i = select i1 %.not.i, i1 %14, i1 %15
  tail call void @llvm.assume(i1 %.sink.i)
  br i1 %.not.i, label %37, label %16

16:                                               ; preds = %.critedge
  %17 = tail call ptr @_zend_new_array_0() #12
  store ptr %17, ptr %1, align 8
  %18 = getelementptr inbounds i8, ptr %1, i64 8
  store i32 775, ptr %18, align 8
  %19 = load i64, ptr %10, align 8
  %20 = icmp sgt i64 %19, 0
  br i1 %20, label %.lr.ph, label %.loopexit

.lr.ph:                                           ; preds = %16, %33
  %.024 = phi i64 [ %34, %33 ], [ 0, %16 ]
  %21 = load ptr, ptr %1, align 8
  %22 = load ptr, ptr %11, align 8
  %23 = getelementptr inbounds %struct._zval_struct, ptr %22, i64 %.024
  %24 = tail call ptr @zend_hash_index_update(ptr noundef %21, i64 noundef %.024, ptr noundef %23) #12
  %25 = load ptr, ptr %11, align 8
  %26 = getelementptr inbounds %struct._zval_struct, ptr %25, i64 %.024
  %27 = getelementptr inbounds i8, ptr %26, i64 9
  %28 = load i8, ptr %27, align 1
  %.not23 = icmp eq i8 %28, 0
  br i1 %.not23, label %33, label %29

29:                                               ; preds = %.lr.ph
  %30 = load ptr, ptr %26, align 8
  %31 = load i32, ptr %30, align 4
  %32 = add i32 %31, 1
  store i32 %32, ptr %30, align 4
  br label %33

33:                                               ; preds = %29, %.lr.ph
  %34 = add nuw nsw i64 %.024, 1
  %35 = load i64, ptr %10, align 8
  %36 = icmp slt i64 %34, %35
  br i1 %36, label %.lr.ph, label %.loopexit

37:                                               ; preds = %.critedge
  store ptr @zend_empty_array, ptr %1, align 8
  %38 = getelementptr inbounds i8, ptr %1, i64 8
  store i32 7, ptr %38, align 8
  br label %.loopexit

.loopexit:                                        ; preds = %33, %16, %37, %5
  ret void
}